target datalayout = "e-m:e-p270:32:32-p271:32:32-p272:64:64-i64:64-i128:128-f80:128-n8:16:32:64-S128"
target triple = "x86_64-pc-linux-gnu"

%struct.job_std_pattern_t = type { i32, ptr, ptr, i32, ptr, ptr, ptr }

@.str = private unnamed_addr constant [3 x i8] c"%s\00", align 1
@.str.30 = private unnamed_addr constant [2 x i8] c"\\\00", align 1
@.str.31 = private unnamed_addr constant [3 x i8] c"%c\00", align 1
@.str.32 = private unnamed_addr constant [5 x i8] c"%0*u\00", align 1
@.str.33 = private unnamed_addr constant [2 x i8] c"0\00", align 1

; Function Attrs: nounwind uwtable
define internal void @_expand_wildcard(ptr noundef %0, ptr noundef %1, ptr noundef %2, i32 noundef %3, ptr noundef %4) #0 {
  %6 = alloca ptr, align 8
  %7 = alloca ptr, align 8
  %8 = alloca ptr, align 8
  %9 = alloca i32, align 4
  %10 = alloca ptr, align 8
  store ptr %0, ptr %6, align 8
  store ptr %1, ptr %7, align 8
  store ptr %2, ptr %8, align 8
  store i32 %3, ptr %9, align 4
  store ptr %4, ptr %10, align 8
  %11 = load ptr, ptr %8, align 8
  %12 = load i8, ptr %11, align 1
  %13 = sext i8 %12 to i32
  switch i32 %13, label %63 [
    i32 65, label %14
    i32 74, label %14
    i32 106, label %14
    i32 97, label %21
    i32 98, label %28
    i32 78, label %36
    i32 115, label %42
    i32 110, label %48
    i32 116, label %48
    i32 117, label %51
    i32 120, label %57
  ]

14:                                               ; preds = %5, %5, %5
  %15 = load ptr, ptr %6, align 8
  %16 = load ptr, ptr %7, align 8
  %17 = load i32, ptr %9, align 4
  %18 = load ptr, ptr %10, align 8
  %19 = getelementptr inbounds nuw %struct.job_std_pattern_t, ptr %18, i32 0, i32 3
  %20 = load i32, ptr %19, align 8
  call void (ptr, ptr, ptr, ...) @_xstrfmtcatat(ptr noundef %15, ptr noundef %16, ptr noundef @.str.32, i32 noundef %17, i32 noundef %20)
  br label %64

21:                                               ; preds = %5
  %22 = load ptr, ptr %6, align 8
  %23 = load ptr, ptr %7, align 8
  %24 = load i32, ptr %9, align 4
  %25 = load ptr, ptr %10, align 8
  %26 = getelementptr inbounds nuw %struct.job_std_pattern_t, ptr %25, i32 0, i32 0
  %27 = load i32, ptr %26, align 8
  call void (ptr, ptr, ptr, ...) @_xstrfmtcatat(ptr noundef %22, ptr noundef %23, ptr noundef @.str.32, i32 noundef %24, i32 noundef %27)
  br label %64

28:                                               ; preds = %5
  %29 = load ptr, ptr %6, align 8
  %30 = load ptr, ptr %7, align 8
  %31 = load i32, ptr %9, align 4
  %32 = load ptr, ptr %10, align 8
  %33 = getelementptr inbounds nuw %struct.job_std_pattern_t, ptr %32, i32 0, i32 0
  %34 = load i32, ptr %33, align 8
  %35 = urem i32 %34, 10
  call void (ptr, ptr, ptr, ...) @_xstrfmtcatat(ptr noundef %29, ptr noundef %30, ptr noundef @.str.32, i32 noundef %31, i32 noundef %35)
  br label %64

36:                                               ; preds = %5
  %37 = load ptr, ptr %6, align 8
  %38 = load ptr, ptr %7, align 8
  %39 = load ptr, ptr %10, align 8
  %40 = getelementptr inbounds nuw %struct.job_std_pattern_t, ptr %39, i32 0, i32 2
  %41 = load ptr, ptr %40, align 8
  call void (ptr, ptr, ptr, ...) @_xstrfmtcatat(ptr noundef %37, ptr noundef %38, ptr noundef @.str, ptr noundef %41)
  br label %64

42:                                               ; preds = %5
  %43 = load ptr, ptr %6, align 8
  %44 = load ptr, ptr %7, align 8
  %45 = load ptr, ptr %10, align 8
  %46 = getelementptr inbounds nuw %struct.job_std_pattern_t, ptr %45, i32 0, i32 1
  %47 = load ptr, ptr %46, align 8
  call void (ptr, ptr, ptr, ...) @_xstrfmtcatat(ptr noundef %43, ptr noundef %44, ptr noundef @.str, ptr noundef %47)
  br label %64

48:                                               ; preds = %5, %5
  %49 = load ptr, ptr %6, align 8
  %50 = load ptr, ptr %7, align 8
  call void (ptr, ptr, ptr, ...) @_xstrfmtcatat(ptr noundef %49, ptr noundef %50, ptr noundef @.str.33)
  br label %64

51:                                               ; preds = %5
  %52 = load ptr, ptr %6, align 8
  %53 = load ptr, ptr %7, align 8
  %54 = load ptr, ptr %10, align 8
  %55 = getelementptr inbounds nuw %struct.job_std_pattern_t, ptr %54, i32 0, i32 5
  %56 = load ptr, ptr %55, align 8
  call void (ptr, ptr, ptr, ...) @_xstrfmtcatat(ptr noundef %52, ptr noundef %53, ptr noundef @.str, ptr noundef %56)
  br label %64

57:                                               ; preds = %5
  %58 = load ptr, ptr %6, align 8
  %59 = load ptr, ptr %7, align 8
  %60 = load ptr, ptr %10, align 8
  %61 = getelementptr inbounds nuw %struct.job_std_pattern_t, ptr %60, i32 0, i32 4
  %62 = load ptr, ptr %61, align 8
  call void (ptr, ptr, ptr, ...) @_xstrfmtcatat(ptr noundef %58, ptr noundef %59, ptr noundef @.str, ptr noundef %62)
  br label %64

63:                                               ; preds = %5
  br label %64

64:                                               ; preds = %63, %57, %51, %48, %42, %36, %28, %21, %14
  ret void
}

; Function Attrs: nounwind uwtable
define internal zeroext i1 @_is_wildcard(ptr noundef %0) #0 {
  %2 = alloca i1, align 1
  %3 = alloca ptr, align 8
  store ptr %0, ptr %3, align 8
  %4 = load ptr, ptr %3, align 8
  %5 = load i8, ptr %4, align 1
  %6 = sext i8 %5 to i32
  switch i32 %6, label %8 [
    i32 65, label %7
    i32 97, label %7
    i32 98, label %7
    i32 74, label %7
    i32 106, label %7
    i32 78, label %7
    i32 110, label %7
    i32 115, label %7
    i32 116, label %7
    i32 117, label %7
    i32 120, label %7
  ]

7:                                                ; preds = %1, %1, %1, %1, %1, %1, %1, %1, %1, %1, %1
  store i1 true, ptr %2, align 1
  br label %10

8:                                                ; preds = %1
  br label %9

9:                                                ; preds = %8
  store i1 false, ptr %2, align 1
  br label %10

10:                                               ; preds = %9, %7
  %11 = load i1, ptr %2, align 1
  ret i1 %11
}

; Function Attrs: nounwind uwtable
define dso_local ptr @expand_stdio_fields(ptr noundef %0, ptr noundef %1) #0 {
  %3 = alloca ptr, align 8
  %4 = alloca ptr, align 8
  %5 = alloca ptr, align 8
  %6 = alloca i32, align 4
  %7 = alloca ptr, align 8
  %8 = alloca ptr, align 8
  %9 = alloca ptr, align 8
  %10 = alloca ptr, align 8
  %11 = alloca i32, align 4
  %12 = alloca i32, align 4
  store ptr %0, ptr %4, align 8
  store ptr %1, ptr %5, align 8
  call void @llvm.lifetime.start.p0(i64 4, ptr %6) #10
  store i32 0, ptr %6, align 4
  call void @llvm.lifetime.start.p0(i64 8, ptr %7) #10
  call void @llvm.lifetime.start.p0(i64 8, ptr %8) #10
  call void @llvm.lifetime.start.p0(i64 8, ptr %9) #10
  store ptr null, ptr %9, align 8
  call void @llvm.lifetime.start.p0(i64 8, ptr %10) #10
  store ptr null, ptr %10, align 8
  call void @llvm.lifetime.start.p0(i64 4, ptr %11) #10
  store i32 0, ptr %11, align 4
  %13 = load ptr, ptr %4, align 8
  %14 = icmp ne ptr %13, null
  br i1 %14, label %15, label %22

15:                                               ; preds = %2
  %16 = load ptr, ptr %4, align 8
  %17 = load i8, ptr %16, align 1
  %18 = icmp ne i8 %17, 0
  br i1 %18, label %19, label %22

19:                                               ; preds = %15
  %20 = load ptr, ptr %5, align 8
  %21 = icmp ne ptr %20, null
  br i1 %21, label %23, label %22

22:                                               ; preds = %19, %15, %2
  store ptr null, ptr %3, align 8
  store i32 1, ptr %12, align 4
  br label %114

23:                                               ; preds = %19
  %24 = load ptr, ptr %4, align 8
  %25 = getelementptr inbounds i8, ptr %24, i64 0
  %26 = load i8, ptr %25, align 1
  %27 = sext i8 %26 to i32
  %28 = icmp ne i32 %27, 47
  br i1 %28, label %29, label %33

29:                                               ; preds = %23
  %30 = load ptr, ptr %5, align 8
  %31 = getelementptr inbounds nuw %struct.job_std_pattern_t, ptr %30, i32 0, i32 6
  %32 = load ptr, ptr %31, align 8
  call void @_xstrncatat(ptr noundef %9, ptr noundef %10, ptr noundef %32, i64 noundef -1)
  br label %33

33:                                               ; preds = %29, %23
  %34 = load ptr, ptr %4, align 8
  %35 = call ptr @xstrstr(ptr noundef %34, ptr noundef @.str.30)
  %36 = icmp ne ptr %35, null
  br i1 %36, label %37, label %38

37:                                               ; preds = %33
  store i32 3, ptr %6, align 4
  br label %38

38:                                               ; preds = %37, %33
  %39 = load ptr, ptr %4, align 8
  store ptr %39, ptr %7, align 8
  br label %40

40:                                               ; preds = %109, %38
  %41 = load ptr, ptr %7, align 8
  %42 = load i8, ptr %41, align 1
  %43 = icmp ne i8 %42, 0
  br i1 %43, label %44, label %112

44:                                               ; preds = %40
  %45 = load i32, ptr %6, align 4
  switch i32 %45, label %108 [
    i32 3, label %46
    i32 0, label %56
    i32 1, label %67
  ]

46:                                               ; preds = %44
  %47 = load ptr, ptr %7, align 8
  %48 = load i8, ptr %47, align 1
  %49 = sext i8 %48 to i32
  %50 = icmp ne i32 %49, 92
  br i1 %50, label %51, label %55

51:                                               ; preds = %46
  %52 = load ptr, ptr %7, align 8
  %53 = load i8, ptr %52, align 1
  %54 = sext i8 %53 to i32
  call void (ptr, ptr, ptr, ...) @_xstrfmtcatat(ptr noundef %9, ptr noundef %10, ptr noundef @.str.31, i32 noundef %54)
  br label %55

55:                                               ; preds = %51, %46
  br label %109

56:                                               ; preds = %44
  %57 = load ptr, ptr %7, align 8
  %58 = load i8, ptr %57, align 1
  %59 = sext i8 %58 to i32
  %60 = icmp eq i32 %59, 37
  br i1 %60, label %61, label %62

61:                                               ; preds = %56
  store i32 1, ptr %6, align 4
  br label %66

62:                                               ; preds = %56
  %63 = load ptr, ptr %7, align 8
  %64 = load i8, ptr %63, align 1
  %65 = sext i8 %64 to i32
  call void (ptr, ptr, ptr, ...) @_xstrfmtcatat(ptr noundef %9, ptr noundef %10, ptr noundef @.str.31, i32 noundef %65)
  br label %66

66:                                               ; preds = %62, %61
  br label %109

67:                                               ; preds = %44
  %68 = call ptr @__ctype_b_loc() #12
  %69 = load ptr, ptr %68, align 8
  %70 = load ptr, ptr %7, align 8
  %71 = load i8, ptr %70, align 1
  %72 = sext i8 %71 to i32
  %73 = sext i32 %72 to i64
  %74 = getelementptr inbounds i16, ptr %69, i64 %73
  %75 = load i16, ptr %74, align 2
  %76 = zext i16 %75 to i32
  %77 = and i32 %76, 2048
  %78 = icmp ne i32 %77, 0
  br i1 %78, label %79, label %90

79:                                               ; preds = %67
  %80 = load ptr, ptr %7, align 8
  %81 = call i64 @strtoul(ptr noundef %80, ptr noundef %8, i32 noundef 10) #10
  %82 = trunc i64 %81 to i32
  store i32 %82, ptr %11, align 4
  %83 = icmp ugt i32 %82, 9
  br i1 %83, label %84, label %86

84:                                               ; preds = %79
  %85 = load ptr, ptr %8, align 8
  store ptr %85, ptr %7, align 8
  store i32 10, ptr %11, align 4
  br label %89

86:                                               ; preds = %79
  %87 = load ptr, ptr %7, align 8
  %88 = getelementptr inbounds nuw i8, ptr %87, i32 1
  store ptr %88, ptr %7, align 8
  br label %89

89:                                               ; preds = %86, %84
  br label %90

90:                                               ; preds = %89, %67
  %91 = load ptr, ptr %7, align 8
  %92 = call zeroext i1 @_is_wildcard(ptr noundef %91)
  br i1 %92, label %97, label %93

93:                                               ; preds = %90
  store i32 0, ptr %11, align 4
  %94 = load ptr, ptr %7, align 8
  %95 = load i8, ptr %94, align 1
  %96 = sext i8 %95 to i32
  call void (ptr, ptr, ptr, ...) @_xstrfmtcatat(ptr noundef %9, ptr noundef %10, ptr noundef @.str.31, i32 noundef %96)
  br label %101

97:                                               ; preds = %90
  %98 = load ptr, ptr %7, align 8
  %99 = load i32, ptr %11, align 4
  %100 = load ptr, ptr %5, align 8
  call void @_expand_wildcard(ptr noundef %9, ptr noundef %10, ptr noundef %98, i32 noundef %99, ptr noundef %100)
  br label %101

101:                                              ; preds = %97, %93
  %102 = load ptr, ptr %7, align 8
  %103 = load i8, ptr %102, align 1
  %104 = sext i8 %103 to i32
  %105 = icmp ne i32 %104, 37
  br i1 %105, label %106, label %107

106:                                              ; preds = %101
  store i32 0, ptr %6, align 4
  br label %107

107:                                              ; preds = %106, %101
  br label %109

108:                                              ; preds = %44
  br label %109

109:                                              ; preds = %108, %107, %66, %55
  %110 = load ptr, ptr %7, align 8
  %111 = getelementptr inbounds nuw i8, ptr %110, i32 1
  store ptr %111, ptr %7, align 8
  br label %40, !llvm.loop !13

112:                                              ; preds = %40
  %113 = load ptr, ptr %9, align 8
  store ptr %113, ptr %3, align 8
  store i32 1, ptr %12, align 4
  br label %114

114:                                              ; preds = %112, %22
  call void @llvm.lifetime.end.p0(i64 4, ptr %11) #10
  call void @llvm.lifetime.end.p0(i64 8, ptr %10) #10
  call void @llvm.lifetime.end.p0(i64 8, ptr %9) #10
  call void @llvm.lifetime.end.p0(i64 8, ptr %8) #10
  call void @llvm.lifetime.end.p0(i64 8, ptr %7) #10
  call void @llvm.lifetime.end.p0(i64 4, ptr %6) #10
  %115 = load ptr, ptr %3, align 8
  ret ptr %115
}