; Function Attrs: nounwind uwtable
define dso_local ptr @expand_stdio_fields(ptr noundef %0, ptr noundef readonly captures(address_is_null) %1) local_unnamed_addr #0 {
  %3 = alloca ptr, align 8
  %4 = alloca ptr, align 8
  %5 = alloca ptr, align 8
  call void @llvm.lifetime.start.p0(i64 8, ptr nonnull %3) #11
  call void @llvm.lifetime.start.p0(i64 8, ptr nonnull %4) #11
  store ptr null, ptr %4, align 8
  call void @llvm.lifetime.start.p0(i64 8, ptr nonnull %5) #11
  store ptr null, ptr %5, align 8
  %.not = icmp eq ptr %0, null
  br i1 %.not, label %70, label %6

6:                                                ; preds = %2
  %7 = load i8, ptr %0, align 1
  %8 = icmp ne i8 %7, 0
  %9 = icmp ne ptr %1, null
  %or.cond = and i1 %9, %8
  br i1 %or.cond, label %10, label %70

10:                                               ; preds = %6
  %.not38 = icmp eq i8 %7, 47
  br i1 %.not38, label %14, label %11

11:                                               ; preds = %10
  %12 = getelementptr inbounds nuw i8, ptr %1, i64 48
  %13 = load ptr, ptr %12, align 8
  call void @_xstrncatat(ptr noundef nonnull %4, ptr noundef nonnull %5, ptr noundef %13, i64 noundef -1) #11
  br label %14

14:                                               ; preds = %11, %10
  %15 = call ptr @xstrstr(ptr noundef nonnull %0, ptr noundef nonnull @.str.30) #11
  %16 = load i8, ptr %0, align 1
  %.not4047 = icmp eq i8 %16, 0
  br i1 %.not4047, label %._crit_edge, label %.lr.ph

.lr.ph:                                           ; preds = %14
  %.not39 = icmp eq ptr %15, null
  %17 = getelementptr inbounds nuw i8, ptr %1, i64 32
  %18 = getelementptr inbounds nuw i8, ptr %1, i64 40
  %19 = getelementptr inbounds nuw i8, ptr %1, i64 8
  %20 = getelementptr inbounds nuw i8, ptr %1, i64 16
  %21 = getelementptr inbounds nuw i8, ptr %1, i64 24
  %spec.select = select i1 %.not39, i32 0, i32 3
  br label %22

22:                                               ; preds = %.lr.ph, %66
  %23 = phi i8 [ %68, %66 ], [ %16, %.lr.ph ]
  %.050 = phi i32 [ %.1, %66 ], [ 0, %.lr.ph ]
  %.02449 = phi ptr [ %67, %66 ], [ %0, %.lr.ph ]
  %.12848 = phi i32 [ %.229, %66 ], [ %spec.select, %.lr.ph ]
  switch i32 %.12848, label %66 [
    i32 3, label %24
    i32 0, label %27
    i32 1, label %31
  ]

24:                                               ; preds = %22
  %.not43 = icmp eq i8 %23, 92
  br i1 %.not43, label %66, label %25

25:                                               ; preds = %24
  %26 = sext i8 %23 to i32
  call void (ptr, ptr, ptr, ...) @_xstrfmtcatat(ptr noundef nonnull %4, ptr noundef nonnull %5, ptr noundef nonnull @.str.31, i32 noundef %26) #11
  br label %66

27:                                               ; preds = %22
  %28 = icmp eq i8 %23, 37
  br i1 %28, label %66, label %29

29:                                               ; preds = %27
  %30 = sext i8 %23 to i32
  call void (ptr, ptr, ptr, ...) @_xstrfmtcatat(ptr noundef nonnull %4, ptr noundef nonnull %5, ptr noundef nonnull @.str.31, i32 noundef %30) #11
  br label %66

31:                                               ; preds = %22
  %32 = tail call ptr @__ctype_b_loc() #13
  %33 = load ptr, ptr %32, align 8
  %34 = sext i8 %23 to i64
  %35 = getelementptr inbounds i16, ptr %33, i64 %34
  %36 = load i16, ptr %35, align 2
  %37 = and i16 %36, 2048
  %.not41 = icmp eq i16 %37, 0
  br i1 %.not41, label %46, label %38

38:                                               ; preds = %31
  %39 = call i64 @strtoul(ptr noundef nonnull %.02449, ptr noundef nonnull %3, i32 noundef 10) #11
  %40 = trunc i64 %39 to i32
  %41 = icmp ugt i32 %40, 9
  br i1 %41, label %42, label %44

42:                                               ; preds = %38
  %43 = load ptr, ptr %3, align 8
  br label %46

44:                                               ; preds = %38
  %45 = getelementptr inbounds nuw i8, ptr %.02449, i64 1
  br label %46

46:                                               ; preds = %42, %44, %31
  %.226 = phi ptr [ %43, %42 ], [ %45, %44 ], [ %.02449, %31 ]
  %.2 = phi i32 [ 10, %42 ], [ %40, %44 ], [ %.050, %31 ]
  %.226.val = load i8, ptr %.226, align 1
  switch i8 %.226.val, label %_is_wildcard.exit [
    i8 65, label %48
    i8 97, label %48
    i8 98, label %48
    i8 74, label %48
    i8 106, label %48
    i8 78, label %48
    i8 110, label %48
    i8 115, label %48
    i8 116, label %48
    i8 117, label %48
    i8 120, label %48
  ]

_is_wildcard.exit:                                ; preds = %46
  %47 = sext i8 %.226.val to i32
  call void (ptr, ptr, ptr, ...) @_xstrfmtcatat(ptr noundef nonnull %4, ptr noundef nonnull %5, ptr noundef nonnull @.str.31, i32 noundef %47) #11
  br label %_expand_wildcard.exit

48:                                               ; preds = %46, %46, %46, %46, %46, %46, %46, %46, %46, %46, %46
  switch i8 %.226.val, label %_expand_wildcard.exit [
    i8 65, label %49
    i8 74, label %49
    i8 106, label %49
    i8 97, label %51
    i8 98, label %53
    i8 78, label %56
    i8 115, label %58
    i8 110, label %60
    i8 116, label %60
    i8 117, label %61
    i8 120, label %63
  ]

49:                                               ; preds = %48, %48, %48
  %50 = load i32, ptr %21, align 8
  call void (ptr, ptr, ptr, ...) @_xstrfmtcatat(ptr noundef nonnull %4, ptr noundef nonnull %5, ptr noundef nonnull @.str.32, i32 noundef range(i32 0, 11) %.2, i32 noundef %50) #11
  br label %_expand_wildcard.exit

51:                                               ; preds = %48
  %52 = load i32, ptr %1, align 8
  call void (ptr, ptr, ptr, ...) @_xstrfmtcatat(ptr noundef nonnull %4, ptr noundef nonnull %5, ptr noundef nonnull @.str.32, i32 noundef range(i32 0, 11) %.2, i32 noundef %52) #11
  br label %_expand_wildcard.exit

53:                                               ; preds = %48
  %54 = load i32, ptr %1, align 8
  %55 = urem i32 %54, 10
  call void (ptr, ptr, ptr, ...) @_xstrfmtcatat(ptr noundef nonnull %4, ptr noundef nonnull %5, ptr noundef nonnull @.str.32, i32 noundef range(i32 0, 11) %.2, i32 noundef %55) #11
  br label %_expand_wildcard.exit

56:                                               ; preds = %48
  %57 = load ptr, ptr %20, align 8
  call void (ptr, ptr, ptr, ...) @_xstrfmtcatat(ptr noundef nonnull %4, ptr noundef nonnull %5, ptr noundef nonnull @.str, ptr noundef %57) #11
  br label %_expand_wildcard.exit

58:                                               ; preds = %48
  %59 = load ptr, ptr %19, align 8
  call void (ptr, ptr, ptr, ...) @_xstrfmtcatat(ptr noundef nonnull %4, ptr noundef nonnull %5, ptr noundef nonnull @.str, ptr noundef %59) #11
  br label %_expand_wildcard.exit

60:                                               ; preds = %48, %48
  call void (ptr, ptr, ptr, ...) @_xstrfmtcatat(ptr noundef nonnull %4, ptr noundef nonnull %5, ptr noundef nonnull @.str.33) #11
  br label %_expand_wildcard.exit

61:                                               ; preds = %48
  %62 = load ptr, ptr %18, align 8
  call void (ptr, ptr, ptr, ...) @_xstrfmtcatat(ptr noundef nonnull %4, ptr noundef nonnull %5, ptr noundef nonnull @.str, ptr noundef %62) #11
  br label %_expand_wildcard.exit

63:                                               ; preds = %48
  %64 = load ptr, ptr %17, align 8
  call void (ptr, ptr, ptr, ...) @_xstrfmtcatat(ptr noundef nonnull %4, ptr noundef nonnull %5, ptr noundef nonnull @.str, ptr noundef %64) #11
  br label %_expand_wildcard.exit

_expand_wildcard.exit:                            ; preds = %63, %61, %60, %58, %56, %53, %51, %49, %48, %_is_wildcard.exit
  %.3 = phi i32 [ 0, %_is_wildcard.exit ], [ %.2, %48 ], [ %.2, %49 ], [ %.2, %51 ], [ %.2, %53 ], [ %.2, %56 ], [ %.2, %58 ], [ %.2, %60 ], [ %.2, %61 ], [ %.2, %63 ]
  %65 = load i8, ptr %.226, align 1
  %.not42 = icmp eq i8 %65, 37
  %spec.select44 = zext i1 %.not42 to i32
  br label %66

66:                                               ; preds = %_expand_wildcard.exit, %27, %22, %29, %24, %25
  %.229 = phi i32 [ %.12848, %22 ], [ 0, %29 ], [ 3, %25 ], [ 3, %24 ], [ 1, %27 ], [ %spec.select44, %_expand_wildcard.exit ]
  %.125 = phi ptr [ %.02449, %22 ], [ %.02449, %29 ], [ %.02449, %25 ], [ %.02449, %24 ], [ %.02449, %27 ], [ %.226, %_expand_wildcard.exit ]
  %.1 = phi i32 [ %.050, %22 ], [ %.050, %29 ], [ %.050, %25 ], [ %.050, %24 ], [ %.050, %27 ], [ %.3, %_expand_wildcard.exit ]
  %67 = getelementptr inbounds nuw i8, ptr %.125, i64 1
  %68 = load i8, ptr %67, align 1
  %.not40 = icmp eq i8 %68, 0
  br i1 %.not40, label %._crit_edge, label %22, !llvm.loop !13

._crit_edge:                                      ; preds = %66, %14
  %69 = load ptr, ptr %4, align 8
  br label %70

70:                                               ; preds = %2, %6, %._crit_edge
  %.030 = phi ptr [ %69, %._crit_edge ], [ null, %6 ], [ null, %2 ]
  call void @llvm.lifetime.end.p0(i64 8, ptr nonnull %5) #11
  call void @llvm.lifetime.end.p0(i64 8, ptr nonnull %4) #11
  call void @llvm.lifetime.end.p0(i64 8, ptr nonnull %3) #11
  ret ptr %.030
}